target datalayout = "e-m:e-p270:32:32-p271:32:32-p272:64:64-i64:64-i128:128-f80:128-n8:16:32:64-S128"
target triple = "x86_64-pc-linux-gnu"

%struct.AVFilterContext = type { ptr, ptr, ptr, ptr, ptr, i32, ptr, ptr, i32, ptr, ptr, i32, i32, ptr, ptr, ptr, ptr, i32, ptr, i32, i32 }
%struct.OverlayContext = type { ptr, i32, i32, i8, [4 x i8], i8, i8, [4 x i8], i8, i32, i32, i32, %struct.FFFrameSync, [4 x i32], [4 x i32], i32, i32, ptr, [14 x double], ptr, ptr, ptr, ptr, [4 x ptr], ptr }
%struct.FFFrameSync = type { ptr, ptr, i32, %struct.AVRational, i64, ptr, ptr, i32, i32, i8, i8, ptr, i32, i32, i32, i32 }
%struct.AVRational = type { i32, i32 }
%struct.AVFilterFormatsConfig = type { ptr, ptr, ptr, ptr, ptr }
%struct.AVFilterLink = type { ptr, ptr, ptr, ptr, i32, i32, i32, i32, %struct.AVRational, i32, i32, i32, %struct.AVChannelLayout, %struct.AVRational, ptr, i32, %struct.AVFilterFormatsConfig, %struct.AVFilterFormatsConfig }
%struct.AVChannelLayout = type { i32, i32, %union.anon.1, ptr }
%union.anon.1 = type { i64 }

; Function Attrs: nounwind uwtable
define internal i32 @config_output(ptr noundef %0) #0 {
  %2 = alloca i32, align 4
  %3 = alloca ptr, align 8
  %4 = alloca ptr, align 8
  %5 = alloca ptr, align 8
  %6 = alloca i32, align 4
  %7 = alloca i32, align 4
  store ptr %0, ptr %3, align 8, !tbaa !49
  call void @llvm.lifetime.start.p0(i64 8, ptr %4) #12
  %8 = load ptr, ptr %3, align 8, !tbaa !49
  %9 = getelementptr inbounds nuw %struct.AVFilterLink, ptr %8, i32 0, i32 0
  %10 = load ptr, ptr %9, align 8, !tbaa !112
  store ptr %10, ptr %4, align 8, !tbaa !4
  call void @llvm.lifetime.start.p0(i64 8, ptr %5) #12
  %11 = load ptr, ptr %4, align 8, !tbaa !4
  %12 = getelementptr inbounds nuw %struct.AVFilterContext, ptr %11, i32 0, i32 9
  %13 = load ptr, ptr %12, align 8, !tbaa !9
  store ptr %13, ptr %5, align 8, !tbaa !22
  call void @llvm.lifetime.start.p0(i64 4, ptr %6) #12
  %14 = load ptr, ptr %5, align 8, !tbaa !22
  %15 = getelementptr inbounds nuw %struct.OverlayContext, ptr %14, i32 0, i32 12
  %16 = load ptr, ptr %4, align 8, !tbaa !4
  %17 = call i32 @ff_framesync_init_dualinput(ptr noundef %15, ptr noundef %16)
  store i32 %17, ptr %6, align 4, !tbaa !42
  %18 = icmp slt i32 %17, 0
  br i1 %18, label %19, label %21

19:                                               ; preds = %1
  %20 = load i32, ptr %6, align 4, !tbaa !42
  store i32 %20, ptr %2, align 4
  store i32 1, ptr %7, align 4
  br label %51

21:                                               ; preds = %1
  %22 = load ptr, ptr %4, align 8, !tbaa !4
  %23 = getelementptr inbounds nuw %struct.AVFilterContext, ptr %22, i32 0, i32 4
  %24 = load ptr, ptr %23, align 8, !tbaa !69
  %25 = getelementptr inbounds ptr, ptr %24, i64 0
  %26 = load ptr, ptr %25, align 8, !tbaa !49
  %27 = getelementptr inbounds nuw %struct.AVFilterLink, ptr %26, i32 0, i32 6
  %28 = load i32, ptr %27, align 8, !tbaa !70
  %29 = load ptr, ptr %3, align 8, !tbaa !49
  %30 = getelementptr inbounds nuw %struct.AVFilterLink, ptr %29, i32 0, i32 6
  store i32 %28, ptr %30, align 8, !tbaa !70
  %31 = load ptr, ptr %4, align 8, !tbaa !4
  %32 = getelementptr inbounds nuw %struct.AVFilterContext, ptr %31, i32 0, i32 4
  %33 = load ptr, ptr %32, align 8, !tbaa !69
  %34 = getelementptr inbounds ptr, ptr %33, i64 0
  %35 = load ptr, ptr %34, align 8, !tbaa !49
  %36 = getelementptr inbounds nuw %struct.AVFilterLink, ptr %35, i32 0, i32 7
  %37 = load i32, ptr %36, align 4, !tbaa !71
  %38 = load ptr, ptr %3, align 8, !tbaa !49
  %39 = getelementptr inbounds nuw %struct.AVFilterLink, ptr %38, i32 0, i32 7
  store i32 %37, ptr %39, align 4, !tbaa !71
  %40 = load ptr, ptr %3, align 8, !tbaa !49
  %41 = getelementptr inbounds nuw %struct.AVFilterLink, ptr %40, i32 0, i32 13
  %42 = load ptr, ptr %4, align 8, !tbaa !4
  %43 = getelementptr inbounds nuw %struct.AVFilterContext, ptr %42, i32 0, i32 4
  %44 = load ptr, ptr %43, align 8, !tbaa !69
  %45 = getelementptr inbounds ptr, ptr %44, i64 0
  %46 = load ptr, ptr %45, align 8, !tbaa !49
  %47 = getelementptr inbounds nuw %struct.AVFilterLink, ptr %46, i32 0, i32 13
  call void @llvm.memcpy.p0.p0.i64(ptr align 8 %41, ptr align 8 %47, i64 8, i1 false), !tbaa.struct !113
  %48 = load ptr, ptr %5, align 8, !tbaa !22
  %49 = getelementptr inbounds nuw %struct.OverlayContext, ptr %48, i32 0, i32 12
  %50 = call i32 @ff_framesync_configure(ptr noundef %49)
  store i32 %50, ptr %2, align 4
  store i32 1, ptr %7, align 4
  br label %51

51:                                               ; preds = %21, %19
  call void @llvm.lifetime.end.p0(i64 4, ptr %6) #12
  call void @llvm.lifetime.end.p0(i64 8, ptr %5) #12
  call void @llvm.lifetime.end.p0(i64 8, ptr %4) #12
  %52 = load i32, ptr %2, align 4
  ret i32 %52
}