; Function Attrs: nounwind uwtable
define internal i32 @config_output(ptr noundef captures(none) %0) #0 {
  %2 = load ptr, ptr %0, align 8, !tbaa !98
  %3 = getelementptr inbounds nuw i8, ptr %2, i64 72
  %4 = load ptr, ptr %3, align 8, !tbaa !4
  %5 = getelementptr inbounds nuw i8, ptr %4, i64 40
  %6 = tail call i32 @ff_framesync_init_dualinput(ptr noundef nonnull %5, ptr noundef %2) #10
  %7 = icmp slt i32 %6, 0
  br i1 %7, label %22, label %8

8:                                                ; preds = %1
  %9 = getelementptr inbounds nuw i8, ptr %2, i64 32
  %10 = load ptr, ptr %9, align 8, !tbaa !58
  %11 = load ptr, ptr %10, align 8, !tbaa !59
  %12 = getelementptr inbounds nuw i8, ptr %11, i64 40
  %13 = load i32, ptr %12, align 8, !tbaa !61
  %14 = getelementptr inbounds nuw i8, ptr %0, i64 40
  store i32 %13, ptr %14, align 8, !tbaa !61
  %15 = getelementptr inbounds nuw i8, ptr %11, i64 44
  %16 = load i32, ptr %15, align 4, !tbaa !62
  %17 = getelementptr inbounds nuw i8, ptr %0, i64 44
  store i32 %16, ptr %17, align 4, !tbaa !62
  %18 = getelementptr inbounds nuw i8, ptr %0, i64 96
  %19 = getelementptr inbounds nuw i8, ptr %11, i64 96
  %20 = load i64, ptr %19, align 8
  store i64 %20, ptr %18, align 8
  %21 = tail call i32 @ff_framesync_configure(ptr noundef nonnull %5) #10
  br label %22

22:                                               ; preds = %1, %8
  %.0 = phi i32 [ %21, %8 ], [ %6, %1 ]
  ret i32 %.0
}